target datalayout = "e-m:e-p270:32:32-p271:32:32-p272:64:64-i64:64-i128:128-f80:128-n8:16:32:64-S128"
target triple = "x86_64-pc-linux-gnu"

@.str.3 = private unnamed_addr constant [38 x i8] c"../openssl/test/evp_pkey_dhkem_test.c\00", align 1
@rctx = internal global [2 x ptr] zeroinitializer, align 16
@.str.50 = private unnamed_addr constant [2 x i8] c"1\00", align 1
@.str.65 = private unnamed_addr constant [37 x i8] c"EVP_PKEY_encapsulate_init(ctx, NULL)\00", align 1
@.str.72 = private unnamed_addr constant [37 x i8] c"EVP_PKEY_decapsulate_init(ctx, NULL)\00", align 1

; Function Attrs: nounwind uwtable
define internal i32 @test_init_multiple(i32 noundef %0) #0 {
  %2 = alloca i32, align 4
  %3 = alloca ptr, align 8
  store i32 %0, ptr %2, align 4, !tbaa !10
  call void @llvm.lifetime.start.p0(i64 8, ptr %3) #6
  %4 = load i32, ptr %2, align 4, !tbaa !10
  %5 = sext i32 %4 to i64
  %6 = getelementptr inbounds [2 x ptr], ptr @rctx, i64 0, i64 %5
  %7 = load ptr, ptr %6, align 8, !tbaa !19
  store ptr %7, ptr %3, align 8, !tbaa !19
  %8 = load ptr, ptr %3, align 8, !tbaa !19
  %9 = call i32 @EVP_PKEY_encapsulate_init(ptr noundef %8, ptr noundef null)
  %10 = call i32 @test_int_eq(ptr noundef @.str.3, i32 noundef 109, ptr noundef @.str.65, ptr noundef @.str.50, i32 noundef %9, i32 noundef 1)
  %11 = icmp ne i32 %10, 0
  br i1 %11, label %12, label %27

12:                                               ; preds = %1
  %13 = load ptr, ptr %3, align 8, !tbaa !19
  %14 = call i32 @EVP_PKEY_encapsulate_init(ptr noundef %13, ptr noundef null)
  %15 = call i32 @test_int_eq(ptr noundef @.str.3, i32 noundef 110, ptr noundef @.str.65, ptr noundef @.str.50, i32 noundef %14, i32 noundef 1)
  %16 = icmp ne i32 %15, 0
  br i1 %16, label %17, label %27

17:                                               ; preds = %12
  %18 = load ptr, ptr %3, align 8, !tbaa !19
  %19 = call i32 @EVP_PKEY_decapsulate_init(ptr noundef %18, ptr noundef null)
  %20 = call i32 @test_int_eq(ptr noundef @.str.3, i32 noundef 111, ptr noundef @.str.72, ptr noundef @.str.50, i32 noundef %19, i32 noundef 1)
  %21 = icmp ne i32 %20, 0
  br i1 %21, label %22, label %27

22:                                               ; preds = %17
  %23 = load ptr, ptr %3, align 8, !tbaa !19
  %24 = call i32 @EVP_PKEY_decapsulate_init(ptr noundef %23, ptr noundef null)
  %25 = call i32 @test_int_eq(ptr noundef @.str.3, i32 noundef 112, ptr noundef @.str.72, ptr noundef @.str.50, i32 noundef %24, i32 noundef 1)
  %26 = icmp ne i32 %25, 0
  br label %27

27:                                               ; preds = %22, %17, %12, %1
  %28 = phi i1 [ false, %17 ], [ false, %12 ], [ false, %1 ], [ %26, %22 ]
  %29 = zext i1 %28 to i32
  call void @llvm.lifetime.end.p0(i64 8, ptr %3) #6
  ret i32 %29
}