; Function Attrs: nounwind uwtable
define internal range(i32 0, 2) i32 @test_init_multiple(i32 noundef %0) #0 {
  %2 = sext i32 %0 to i64
  %3 = getelementptr inbounds [2 x ptr], ptr @rctx, i64 0, i64 %2
  %4 = load ptr, ptr %3, align 8, !tbaa !19
  %5 = tail call i32 @EVP_PKEY_encapsulate_init(ptr noundef %4, ptr noundef null) #5
  %6 = tail call i32 @test_int_eq(ptr noundef nonnull @.str.3, i32 noundef 109, ptr noundef nonnull @.str.65, ptr noundef nonnull @.str.50, i32 noundef %5, i32 noundef 1) #5
  %.not = icmp eq i32 %6, 0
  br i1 %.not, label %18, label %7

7:                                                ; preds = %1
  %8 = tail call i32 @EVP_PKEY_encapsulate_init(ptr noundef %4, ptr noundef null) #5
  %9 = tail call i32 @test_int_eq(ptr noundef nonnull @.str.3, i32 noundef 110, ptr noundef nonnull @.str.65, ptr noundef nonnull @.str.50, i32 noundef %8, i32 noundef 1) #5
  %.not4 = icmp eq i32 %9, 0
  br i1 %.not4, label %18, label %10

10:                                               ; preds = %7
  %11 = tail call i32 @EVP_PKEY_decapsulate_init(ptr noundef %4, ptr noundef null) #5
  %12 = tail call i32 @test_int_eq(ptr noundef nonnull @.str.3, i32 noundef 111, ptr noundef nonnull @.str.72, ptr noundef nonnull @.str.50, i32 noundef %11, i32 noundef 1) #5
  %.not5 = icmp eq i32 %12, 0
  br i1 %.not5, label %18, label %13

13:                                               ; preds = %10
  %14 = tail call i32 @EVP_PKEY_decapsulate_init(ptr noundef %4, ptr noundef null) #5
  %15 = tail call i32 @test_int_eq(ptr noundef nonnull @.str.3, i32 noundef 112, ptr noundef nonnull @.str.72, ptr noundef nonnull @.str.50, i32 noundef %14, i32 noundef 1) #5
  %16 = icmp ne i32 %15, 0
  %17 = zext i1 %16 to i32
  br label %18

18:                                               ; preds = %13, %10, %7, %1
  %19 = phi i32 [ 0, %10 ], [ 0, %7 ], [ 0, %1 ], [ %17, %13 ]
  ret i32 %19
}